target datalayout = "e-m:e-p270:32:32-p271:32:32-p272:64:64-i64:64-i128:128-f80:128-n8:16:32:64-S128"
target triple = "x86_64-pc-linux-gnu"

%struct.Vec_Ptr_t_ = type { i32, i32, ptr }
%struct.Aig_Man_t_ = type { ptr, ptr, ptr, ptr, ptr, ptr, ptr, %struct.Aig_Obj_t_, i32, i32, i32, i32, i32, i32, [7 x i32], i32, ptr, i32, ptr, i32, ptr, i32, i32, i32, ptr, i32, i32, i32, i32, i32, ptr, ptr, i32, ptr, ptr, i32, ptr, ptr, i32, i32, i32, ptr, ptr, ptr, ptr, ptr, ptr, ptr, ptr, ptr, ptr, ptr, ptr, ptr, ptr, i32, ptr, ptr, ptr, ptr, i32, i64, i64, i64, ptr, ptr }
%struct.Aig_Obj_t_ = type { %union.anon, ptr, ptr, i64, i32, i32, %union.anon.0 }
%union.anon = type { ptr }
%union.anon.0 = type { ptr }

@.str.105 = private unnamed_addr constant [39 x i8] c"Selected object %d as a window pivot.\0A\00", align 1
@.str.106 = private unnamed_addr constant [22 x i8] c"The ID is too large.\0A\00", align 1
@.str.107 = private unnamed_addr constant [35 x i8] c"Object with ID %d does not exist.\0A\00", align 1
@.str.108 = private unnamed_addr constant [48 x i8] c"Object with ID %d is not a node or reg output.\0A\00", align 1

; Function Attrs: nounwind uwtable
define internal i32 @Saig_ManPiNum(ptr noundef %0) #0 {
  %2 = alloca ptr, align 8
  store ptr %0, ptr %2, align 8
  %3 = load ptr, ptr %2, align 8
  %4 = getelementptr inbounds %struct.Aig_Man_t_, ptr %3, i32 0, i32 9
  %5 = load i32, ptr %4, align 4
  ret i32 %5
}

; Function Attrs: nounwind uwtable
define internal i32 @Aig_ObjCioId(ptr noundef %0) #0 {
  %2 = alloca ptr, align 8
  store ptr %0, ptr %2, align 8
  %3 = load ptr, ptr %2, align 8
  %4 = getelementptr inbounds %struct.Aig_Obj_t_, ptr %3, i32 0, i32 0
  %5 = load i32, ptr %4, align 8
  ret i32 %5
}

; Function Attrs: nounwind uwtable
define internal i32 @Aig_ObjIsCi(ptr noundef %0) #0 {
  %2 = alloca ptr, align 8
  store ptr %0, ptr %2, align 8
  %3 = load ptr, ptr %2, align 8
  %4 = getelementptr inbounds %struct.Aig_Obj_t_, ptr %3, i32 0, i32 3
  %5 = load i64, ptr %4, align 8
  %6 = and i64 %5, 7
  %7 = trunc i64 %6 to i32
  %8 = icmp eq i32 %7, 2
  %9 = zext i1 %8 to i32
  ret i32 %9
}

; Function Attrs: nounwind uwtable
define internal ptr @Vec_PtrEntry(ptr noundef %0, i32 noundef %1) #0 {
  %3 = alloca ptr, align 8
  %4 = alloca i32, align 4
  store ptr %0, ptr %3, align 8
  store i32 %1, ptr %4, align 4
  %5 = load ptr, ptr %3, align 8
  %6 = getelementptr inbounds %struct.Vec_Ptr_t_, ptr %5, i32 0, i32 2
  %7 = load ptr, ptr %6, align 8
  %8 = load i32, ptr %4, align 4
  %9 = sext i32 %8 to i64
  %10 = getelementptr inbounds ptr, ptr %7, i64 %9
  %11 = load ptr, ptr %10, align 8
  ret ptr %11
}

; Function Attrs: nounwind uwtable
define internal i32 @Vec_PtrSize(ptr noundef %0) #0 {
  %2 = alloca ptr, align 8
  store ptr %0, ptr %2, align 8
  %3 = load ptr, ptr %2, align 8
  %4 = getelementptr inbounds %struct.Vec_Ptr_t_, ptr %3, i32 0, i32 1
  %5 = load i32, ptr %4, align 4
  ret i32 %5
}

; Function Attrs: nounwind uwtable
define internal i32 @Aig_ObjIsNode(ptr noundef %0) #0 {
  %2 = alloca ptr, align 8
  store ptr %0, ptr %2, align 8
  %3 = load ptr, ptr %2, align 8
  %4 = getelementptr inbounds %struct.Aig_Obj_t_, ptr %3, i32 0, i32 3
  %5 = load i64, ptr %4, align 8
  %6 = and i64 %5, 7
  %7 = trunc i64 %6 to i32
  %8 = icmp eq i32 %7, 5
  br i1 %8, label %16, label %9

9:                                                ; preds = %1
  %10 = load ptr, ptr %2, align 8
  %11 = getelementptr inbounds %struct.Aig_Obj_t_, ptr %10, i32 0, i32 3
  %12 = load i64, ptr %11, align 8
  %13 = and i64 %12, 7
  %14 = trunc i64 %13 to i32
  %15 = icmp eq i32 %14, 6
  br label %16

16:                                               ; preds = %9, %1
  %17 = phi i1 [ true, %1 ], [ %15, %9 ]
  %18 = zext i1 %17 to i32
  ret i32 %18
}

; Function Attrs: nounwind uwtable
define internal i32 @Saig_ObjIsLo(ptr noundef %0, ptr noundef %1) #0 {
  %3 = alloca ptr, align 8
  %4 = alloca ptr, align 8
  store ptr %0, ptr %3, align 8
  store ptr %1, ptr %4, align 8
  %5 = load ptr, ptr %4, align 8
  %6 = call i32 @Aig_ObjIsCi(ptr noundef %5)
  %7 = icmp ne i32 %6, 0
  br i1 %7, label %8, label %14

8:                                                ; preds = %2
  %9 = load ptr, ptr %4, align 8
  %10 = call i32 @Aig_ObjCioId(ptr noundef %9)
  %11 = load ptr, ptr %3, align 8
  %12 = call i32 @Saig_ManPiNum(ptr noundef %11)
  %13 = icmp sge i32 %10, %12
  br label %14

14:                                               ; preds = %8, %2
  %15 = phi i1 [ false, %2 ], [ %13, %8 ]
  %16 = zext i1 %15 to i32
  ret i32 %16
}

; Function Attrs: nounwind uwtable
define internal ptr @Aig_ManObj(ptr noundef %0, i32 noundef %1) #0 {
  %3 = alloca ptr, align 8
  %4 = alloca i32, align 4
  store ptr %0, ptr %3, align 8
  store i32 %1, ptr %4, align 4
  %5 = load ptr, ptr %3, align 8
  %6 = getelementptr inbounds %struct.Aig_Man_t_, ptr %5, i32 0, i32 4
  %7 = load ptr, ptr %6, align 8
  %8 = icmp ne ptr %7, null
  br i1 %8, label %9, label %15

9:                                                ; preds = %2
  %10 = load ptr, ptr %3, align 8
  %11 = getelementptr inbounds %struct.Aig_Man_t_, ptr %10, i32 0, i32 4
  %12 = load ptr, ptr %11, align 8
  %13 = load i32, ptr %4, align 4
  %14 = call ptr @Vec_PtrEntry(ptr noundef %12, i32 noundef %13)
  br label %16

15:                                               ; preds = %2
  br label %16

16:                                               ; preds = %15, %9
  %17 = phi ptr [ %14, %9 ], [ null, %15 ]
  ret ptr %17
}

; Function Attrs: nounwind uwtable
define internal i32 @Aig_ManObjNumMax(ptr noundef %0) #0 {
  %2 = alloca ptr, align 8
  store ptr %0, ptr %2, align 8
  %3 = load ptr, ptr %2, align 8
  %4 = getelementptr inbounds %struct.Aig_Man_t_, ptr %3, i32 0, i32 4
  %5 = load ptr, ptr %4, align 8
  %6 = call i32 @Vec_PtrSize(ptr noundef %5)
  ret i32 %6
}

; Function Attrs: nounwind uwtable
define ptr @Abc_NtkDarInsWin(ptr noundef %0, ptr noundef %1, i32 noundef %2, i32 noundef %3, i32 noundef %4) #0 {
  %6 = alloca ptr, align 8
  %7 = alloca ptr, align 8
  %8 = alloca ptr, align 8
  %9 = alloca i32, align 4
  %10 = alloca i32, align 4
  %11 = alloca i32, align 4
  %12 = alloca ptr, align 8
  %13 = alloca ptr, align 8
  %14 = alloca ptr, align 8
  %15 = alloca ptr, align 8
  %16 = alloca ptr, align 8
  store ptr %0, ptr %7, align 8
  store ptr %1, ptr %8, align 8
  store i32 %2, ptr %9, align 4
  store i32 %3, ptr %10, align 4
  store i32 %4, ptr %11, align 4
  store ptr null, ptr %14, align 8
  %17 = load ptr, ptr %7, align 8
  %18 = call ptr @Abc_NtkToDar(ptr noundef %17, i32 noundef 0, i32 noundef 1)
  store ptr %18, ptr %13, align 8
  %19 = load ptr, ptr %13, align 8
  %20 = icmp eq ptr %19, null
  br i1 %20, label %21, label %22

21:                                               ; preds = %5
  store ptr null, ptr %6, align 8
  br label %92

22:                                               ; preds = %5
  %23 = load i32, ptr %9, align 4
  %24 = icmp eq i32 %23, -1
  br i1 %24, label %25, label %31

25:                                               ; preds = %22
  %26 = load ptr, ptr %13, align 8
  %27 = call ptr @Saig_ManFindPivot(ptr noundef %26)
  store ptr %27, ptr %16, align 8
  %28 = load ptr, ptr %16, align 8
  %29 = getelementptr inbounds %struct.Aig_Obj_t_, ptr %28, i32 0, i32 5
  %30 = load i32, ptr %29, align 4
  call void (i32, ptr, ...) @Abc_Print(i32 noundef 1, ptr noundef @.str.105, i32 noundef %30)
  br label %60

31:                                               ; preds = %22
  %32 = load i32, ptr %9, align 4
  %33 = load ptr, ptr %13, align 8
  %34 = call i32 @Aig_ManObjNumMax(ptr noundef %33)
  %35 = icmp sge i32 %32, %34
  br i1 %35, label %36, label %38

36:                                               ; preds = %31
  %37 = load ptr, ptr %13, align 8
  call void @Aig_ManStop(ptr noundef %37)
  call void (i32, ptr, ...) @Abc_Print(i32 noundef 1, ptr noundef @.str.106)
  store ptr null, ptr %6, align 8
  br label %92

38:                                               ; preds = %31
  %39 = load ptr, ptr %13, align 8
  %40 = load i32, ptr %9, align 4
  %41 = call ptr @Aig_ManObj(ptr noundef %39, i32 noundef %40)
  store ptr %41, ptr %16, align 8
  %42 = load ptr, ptr %16, align 8
  %43 = icmp eq ptr %42, null
  br i1 %43, label %44, label %47

44:                                               ; preds = %38
  %45 = load ptr, ptr %13, align 8
  call void @Aig_ManStop(ptr noundef %45)
  %46 = load i32, ptr %9, align 4
  call void (i32, ptr, ...) @Abc_Print(i32 noundef 1, ptr noundef @.str.107, i32 noundef %46)
  store ptr null, ptr %6, align 8
  br label %92

47:                                               ; preds = %38
  %48 = load ptr, ptr %13, align 8
  %49 = load ptr, ptr %16, align 8
  %50 = call i32 @Saig_ObjIsLo(ptr noundef %48, ptr noundef %49)
  %51 = icmp ne i32 %50, 0
  br i1 %51, label %59, label %52

52:                                               ; preds = %47
  %53 = load ptr, ptr %16, align 8
  %54 = call i32 @Aig_ObjIsNode(ptr noundef %53)
  %55 = icmp ne i32 %54, 0
  br i1 %55, label %59, label %56

56:                                               ; preds = %52
  %57 = load ptr, ptr %13, align 8
  call void @Aig_ManStop(ptr noundef %57)
  %58 = load i32, ptr %9, align 4
  call void (i32, ptr, ...) @Abc_Print(i32 noundef 1, ptr noundef @.str.108, i32 noundef %58)
  store ptr null, ptr %6, align 8
  br label %92

59:                                               ; preds = %52, %47
  br label %60

60:                                               ; preds = %59, %25
  %61 = load ptr, ptr %8, align 8
  %62 = icmp ne ptr %61, null
  br i1 %62, label %63, label %71

63:                                               ; preds = %60
  %64 = load ptr, ptr %8, align 8
  %65 = call ptr @Abc_NtkToDar(ptr noundef %64, i32 noundef 0, i32 noundef 0)
  store ptr %65, ptr %14, align 8
  %66 = load ptr, ptr %14, align 8
  %67 = icmp eq ptr %66, null
  br i1 %67, label %68, label %70

68:                                               ; preds = %63
  %69 = load ptr, ptr %13, align 8
  call void @Aig_ManStop(ptr noundef %69)
  store ptr null, ptr %6, align 8
  br label %92

70:                                               ; preds = %63
  br label %71

71:                                               ; preds = %70, %60
  %72 = load ptr, ptr %13, align 8
  %73 = load ptr, ptr %16, align 8
  %74 = load i32, ptr %10, align 4
  %75 = load ptr, ptr %14, align 8
  %76 = call ptr @Saig_ManWindowInsert(ptr noundef %72, ptr noundef %73, i32 noundef %74, ptr noundef %75)
  store ptr %76, ptr %15, align 8
  %77 = load ptr, ptr %13, align 8
  call void @Aig_ManStop(ptr noundef %77)
  %78 = load ptr, ptr %14, align 8
  %79 = icmp ne ptr %78, null
  br i1 %79, label %80, label %82

80:                                               ; preds = %71
  %81 = load ptr, ptr %14, align 8
  call void @Aig_ManStop(ptr noundef %81)
  br label %82

82:                                               ; preds = %80, %71
  %83 = load ptr, ptr %15, align 8
  %84 = icmp eq ptr %83, null
  br i1 %84, label %85, label %86

85:                                               ; preds = %82
  store ptr null, ptr %6, align 8
  br label %92

86:                                               ; preds = %82
  %87 = load ptr, ptr %7, align 8
  %88 = load ptr, ptr %15, align 8
  %89 = call ptr @Abc_NtkFromDarSeqSweep(ptr noundef %87, ptr noundef %88)
  store ptr %89, ptr %12, align 8
  %90 = load ptr, ptr %15, align 8
  call void @Aig_ManStop(ptr noundef %90)
  %91 = load ptr, ptr %12, align 8
  store ptr %91, ptr %6, align 8
  br label %92

92:                                               ; preds = %86, %85, %68, %56, %44, %36, %21
  %93 = load ptr, ptr %6, align 8
  ret ptr %93
}