; Function Attrs: nounwind uwtable
define ptr @Abc_NtkDarInsWin(ptr noundef %0, ptr noundef %1, i32 noundef %2, i32 noundef %3, i32 noundef %4) local_unnamed_addr #1 {
  %6 = tail call ptr @Abc_NtkToDar(ptr noundef %0, i32 noundef 0, i32 noundef 1)
  %7 = icmp eq ptr %6, null
  br i1 %7, label %44, label %8

8:                                                ; preds = %5
  %9 = icmp eq i32 %2, -1
  br i1 %9, label %10, label %14

10:                                               ; preds = %8
  %11 = tail call ptr @Saig_ManFindPivot(ptr noundef nonnull %6) #19
  %12 = getelementptr inbounds nuw i8, ptr %11, i64 36
  %13 = load i32, ptr %12, align 4
  tail call void (i32, ptr, ...) @Abc_Print(i32 poison, ptr noundef nonnull @.str.105, i32 noundef %13)
  br label %32

14:                                               ; preds = %8
  %15 = getelementptr i8, ptr %6, i64 32
  %.val47 = load ptr, ptr %15, align 8
  %16 = getelementptr i8, ptr %.val47, i64 4
  %.val47.val = load i32, ptr %16, align 4
  %.not = icmp slt i32 %2, %.val47.val
  br i1 %.not, label %Aig_ManObj.exit, label %17

17:                                               ; preds = %14
  tail call void @Aig_ManStop(ptr noundef nonnull %6) #19
  tail call void (i32, ptr, ...) @Abc_Print(i32 poison, ptr noundef nonnull @.str.106)
  br label %44

Aig_ManObj.exit:                                  ; preds = %14
  %18 = getelementptr i8, ptr %.val47, i64 8
  %.val.i = load ptr, ptr %18, align 8
  %19 = sext i32 %2 to i64
  %20 = getelementptr inbounds ptr, ptr %.val.i, i64 %19
  %21 = load ptr, ptr %20, align 8
  %22 = icmp eq ptr %21, null
  br i1 %22, label %23, label %24

23:                                               ; preds = %Aig_ManObj.exit
  tail call void @Aig_ManStop(ptr noundef nonnull %6) #19
  tail call void (i32, ptr, ...) @Abc_Print(i32 poison, ptr noundef nonnull @.str.107, i32 noundef %2)
  br label %44

24:                                               ; preds = %Aig_ManObj.exit
  %25 = getelementptr i8, ptr %21, i64 24
  %.val4.i = load i64, ptr %25, align 8
  %26 = and i64 %.val4.i, 7
  %.not.i48 = icmp eq i64 %26, 2
  br i1 %.not.i48, label %Saig_ObjIsLo.exit, label %Saig_ObjIsLo.exit.thread

Saig_ObjIsLo.exit:                                ; preds = %24
  %.val3.i = load i32, ptr %21, align 8
  %27 = getelementptr i8, ptr %6, i64 108
  %.val.i49 = load i32, ptr %27, align 4
  %.not51 = icmp slt i32 %.val3.i, %.val.i49
  br i1 %.not51, label %Saig_ObjIsLo.exit.thread, label %32

Saig_ObjIsLo.exit.thread:                         ; preds = %24, %Saig_ObjIsLo.exit
  %28 = trunc i64 %.val4.i to i32
  %29 = and i32 %28, 7
  %30 = add nsw i32 %29, -7
  %narrow.i = icmp ult i32 %30, -2
  br i1 %narrow.i, label %31, label %32

31:                                               ; preds = %Saig_ObjIsLo.exit.thread
  tail call void @Aig_ManStop(ptr noundef nonnull %6) #19
  tail call void (i32, ptr, ...) @Abc_Print(i32 poison, ptr noundef nonnull @.str.108, i32 noundef %2)
  br label %44

32:                                               ; preds = %Saig_ObjIsLo.exit, %Saig_ObjIsLo.exit.thread, %10
  %.0 = phi ptr [ %11, %10 ], [ %21, %Saig_ObjIsLo.exit ], [ %21, %Saig_ObjIsLo.exit.thread ]
  %.not44 = icmp eq ptr %1, null
  br i1 %.not44, label %37, label %33

33:                                               ; preds = %32
  %34 = tail call ptr @Abc_NtkToDar(ptr noundef nonnull %1, i32 noundef 0, i32 noundef 0)
  %35 = icmp eq ptr %34, null
  br i1 %35, label %36, label %37

36:                                               ; preds = %33
  tail call void @Aig_ManStop(ptr noundef nonnull %6) #19
  br label %44

37:                                               ; preds = %33, %32
  %.035 = phi ptr [ %34, %33 ], [ null, %32 ]
  %38 = tail call ptr @Saig_ManWindowInsert(ptr noundef nonnull %6, ptr noundef nonnull %.0, i32 noundef %3, ptr noundef %.035) #19
  tail call void @Aig_ManStop(ptr noundef nonnull %6) #19
  %.not45 = icmp eq ptr %.035, null
  br i1 %.not45, label %40, label %39

39:                                               ; preds = %37
  tail call void @Aig_ManStop(ptr noundef nonnull %.035) #19
  br label %40

40:                                               ; preds = %39, %37
  %41 = icmp eq ptr %38, null
  br i1 %41, label %44, label %42

42:                                               ; preds = %40
  %43 = tail call ptr @Abc_NtkFromDarSeqSweep(ptr noundef %0, ptr noundef nonnull %38)
  tail call void @Aig_ManStop(ptr noundef nonnull %38) #19
  br label %44

44:                                               ; preds = %40, %5, %42, %36, %31, %23, %17
  %.034 = phi ptr [ null, %36 ], [ %43, %42 ], [ null, %17 ], [ null, %23 ], [ null, %31 ], [ null, %5 ], [ null, %40 ]
  ret ptr %.034
}